target datalayout = "e-m:e-p270:32:32-p271:32:32-p272:64:64-i64:64-i128:128-f80:128-n8:16:32:64-S128"
target triple = "x86_64-pc-linux-gnu"

%"class.OpenImageIO::v3_1_0::basic_string_view" = type { ptr, i64 }

; Function Attrs: mustprogress nounwind uwtable
define linkonce_odr hidden void @_ZN11OpenImageIO6v3_1_017basic_string_viewIcSt11char_traitsIcEEC2EPKcm(ptr noundef nonnull align 8 dereferenceable(16) %0, ptr noundef %1, i64 noundef %2) unnamed_addr #6 comdat align 2 {
  %4 = alloca ptr, align 8
  %5 = alloca ptr, align 8
  %6 = alloca i64, align 8
  store ptr %0, ptr %4, align 8, !tbaa !103
  store ptr %1, ptr %5, align 8, !tbaa !10
  store i64 %2, ptr %6, align 8, !tbaa !108
  %7 = load ptr, ptr %4, align 8
  %8 = getelementptr inbounds nuw %"class.OpenImageIO::v3_1_0::basic_string_view", ptr %7, i32 0, i32 0
  %9 = load ptr, ptr %5, align 8, !tbaa !10
  store ptr %9, ptr %8, align 8, !tbaa !109
  %10 = getelementptr inbounds nuw %"class.OpenImageIO::v3_1_0::basic_string_view", ptr %7, i32 0, i32 1
  %11 = load i64, ptr %6, align 8, !tbaa !108
  store i64 %11, ptr %10, align 8, !tbaa !105
  ret void
}

; Function Attrs: mustprogress nounwind uwtable
define linkonce_odr hidden void @_ZN11OpenImageIO6v3_1_017basic_string_viewIcSt11char_traitsIcEEC2Ev(ptr noundef nonnull align 8 dereferenceable(16) %0) unnamed_addr #6 comdat align 2 {
  %2 = alloca ptr, align 8
  store ptr %0, ptr %2, align 8, !tbaa !103
  %3 = load ptr, ptr %2, align 8
  %4 = getelementptr inbounds nuw %"class.OpenImageIO::v3_1_0::basic_string_view", ptr %3, i32 0, i32 0
  store ptr null, ptr %4, align 8, !tbaa !109
  %5 = getelementptr inbounds nuw %"class.OpenImageIO::v3_1_0::basic_string_view", ptr %3, i32 0, i32 1
  store i64 0, ptr %5, align 8, !tbaa !105
  ret void
}

; Function Attrs: mustprogress nounwind uwtable
define linkonce_odr hidden void @_ZN11OpenImageIO6v3_1_017basic_string_viewIcSt11char_traitsIcEE13remove_prefixEm(ptr noundef nonnull align 8 dereferenceable(16) %0, i64 noundef %1) #6 comdat align 2 {
  %3 = alloca ptr, align 8
  %4 = alloca i64, align 8
  store ptr %0, ptr %3, align 8, !tbaa !103
  store i64 %1, ptr %4, align 8, !tbaa !108
  %5 = load ptr, ptr %3, align 8
  %6 = load i64, ptr %4, align 8, !tbaa !108
  %7 = getelementptr inbounds nuw %"class.OpenImageIO::v3_1_0::basic_string_view", ptr %5, i32 0, i32 1
  %8 = load i64, ptr %7, align 8, !tbaa !105
  %9 = icmp ugt i64 %6, %8
  br i1 %9, label %10, label %13

10:                                               ; preds = %2
  %11 = getelementptr inbounds nuw %"class.OpenImageIO::v3_1_0::basic_string_view", ptr %5, i32 0, i32 1
  %12 = load i64, ptr %11, align 8, !tbaa !105
  store i64 %12, ptr %4, align 8, !tbaa !108
  br label %13

13:                                               ; preds = %10, %2
  %14 = load i64, ptr %4, align 8, !tbaa !108
  %15 = getelementptr inbounds nuw %"class.OpenImageIO::v3_1_0::basic_string_view", ptr %5, i32 0, i32 0
  %16 = load ptr, ptr %15, align 8, !tbaa !109
  %17 = getelementptr inbounds nuw i8, ptr %16, i64 %14
  store ptr %17, ptr %15, align 8, !tbaa !109
  %18 = load i64, ptr %4, align 8, !tbaa !108
  %19 = getelementptr inbounds nuw %"class.OpenImageIO::v3_1_0::basic_string_view", ptr %5, i32 0, i32 1
  %20 = load i64, ptr %19, align 8, !tbaa !105
  %21 = sub i64 %20, %18
  store i64 %21, ptr %19, align 8, !tbaa !105
  ret void
}

; Function Attrs: inlinehint mustprogress nounwind uwtable
define linkonce_odr hidden noundef zeroext i1 @_ZN11OpenImageIO6v3_1_07Strutil7isspaceEc(i8 noundef signext %0) #4 comdat {
  %2 = alloca i8, align 1
  store i8 %0, ptr %2, align 1, !tbaa !8
  %3 = load i8, ptr %2, align 1, !tbaa !8
  %4 = sext i8 %3 to i32
  %5 = icmp eq i32 %4, 32
  br i1 %5, label %18, label %6

6:                                                ; preds = %1
  %7 = load i8, ptr %2, align 1, !tbaa !8
  %8 = sext i8 %7 to i32
  %9 = icmp eq i32 %8, 10
  br i1 %9, label %18, label %10

10:                                               ; preds = %6
  %11 = load i8, ptr %2, align 1, !tbaa !8
  %12 = sext i8 %11 to i32
  %13 = icmp eq i32 %12, 9
  br i1 %13, label %18, label %14

14:                                               ; preds = %10
  %15 = load i8, ptr %2, align 1, !tbaa !8
  %16 = sext i8 %15 to i32
  %17 = icmp eq i32 %16, 13
  br label %18

18:                                               ; preds = %14, %10, %6, %1
  %19 = phi i1 [ true, %10 ], [ true, %6 ], [ true, %1 ], [ %17, %14 ]
  ret i1 %19
}

; Function Attrs: mustprogress nounwind uwtable
define linkonce_odr hidden noundef nonnull align 1 dereferenceable(1) ptr @_ZNK11OpenImageIO6v3_1_017basic_string_viewIcSt11char_traitsIcEE5frontEv(ptr noundef nonnull align 8 dereferenceable(16) %0) #6 comdat align 2 {
  %2 = alloca ptr, align 8
  store ptr %0, ptr %2, align 8, !tbaa !103
  %3 = load ptr, ptr %2, align 8
  %4 = getelementptr inbounds nuw %"class.OpenImageIO::v3_1_0::basic_string_view", ptr %3, i32 0, i32 0
  %5 = load ptr, ptr %4, align 8, !tbaa !109
  %6 = getelementptr inbounds i8, ptr %5, i64 0
  ret ptr %6
}

; Function Attrs: mustprogress nounwind uwtable
define linkonce_odr hidden noundef ptr @_ZNK11OpenImageIO6v3_1_017basic_string_viewIcSt11char_traitsIcEE4dataEv(ptr noundef nonnull align 8 dereferenceable(16) %0) #6 comdat align 2 {
  %2 = alloca ptr, align 8
  store ptr %0, ptr %2, align 8, !tbaa !103
  %3 = load ptr, ptr %2, align 8
  %4 = getelementptr inbounds nuw %"class.OpenImageIO::v3_1_0::basic_string_view", ptr %3, i32 0, i32 0
  %5 = load ptr, ptr %4, align 8, !tbaa !109
  ret ptr %5
}

; Function Attrs: mustprogress nounwind uwtable
define linkonce_odr hidden void @_ZNK11OpenImageIO6v3_1_017basic_string_viewIcSt11char_traitsIcEE6substrEmm(ptr dead_on_unwind noalias writable sret(%"class.OpenImageIO::v3_1_0::basic_string_view") align 8 %0, ptr noundef nonnull align 8 dereferenceable(16) %1, i64 noundef %2, i64 noundef %3) #6 comdat align 2 {
  %5 = alloca ptr, align 8
  %6 = alloca ptr, align 8
  %7 = alloca i64, align 8
  %8 = alloca i64, align 8
  store ptr %0, ptr %5, align 8
  store ptr %1, ptr %6, align 8, !tbaa !103
  store i64 %2, ptr %7, align 8, !tbaa !108
  store i64 %3, ptr %8, align 8, !tbaa !108
  %9 = load ptr, ptr %6, align 8
  %10 = load i64, ptr %7, align 8, !tbaa !108
  %11 = call noundef i64 @_ZNK11OpenImageIO6v3_1_017basic_string_viewIcSt11char_traitsIcEE4sizeEv(ptr noundef nonnull align 8 dereferenceable(16) %9) #3
  %12 = icmp uge i64 %10, %11
  br i1 %12, label %13, label %14

13:                                               ; preds = %4
  call void @_ZN11OpenImageIO6v3_1_017basic_string_viewIcSt11char_traitsIcEEC2Ev(ptr noundef nonnull align 8 dereferenceable(16) %0) #3
  br label %32

14:                                               ; preds = %4
  %15 = load i64, ptr %8, align 8, !tbaa !108
  %16 = icmp eq i64 %15, -1
  br i1 %16, label %23, label %17

17:                                               ; preds = %14
  %18 = load i64, ptr %7, align 8, !tbaa !108
  %19 = load i64, ptr %8, align 8, !tbaa !108
  %20 = add i64 %18, %19
  %21 = call noundef i64 @_ZNK11OpenImageIO6v3_1_017basic_string_viewIcSt11char_traitsIcEE4sizeEv(ptr noundef nonnull align 8 dereferenceable(16) %9) #3
  %22 = icmp ugt i64 %20, %21
  br i1 %22, label %23, label %27

23:                                               ; preds = %17, %14
  %24 = call noundef i64 @_ZNK11OpenImageIO6v3_1_017basic_string_viewIcSt11char_traitsIcEE4sizeEv(ptr noundef nonnull align 8 dereferenceable(16) %9) #3
  %25 = load i64, ptr %7, align 8, !tbaa !108
  %26 = sub i64 %24, %25
  store i64 %26, ptr %8, align 8, !tbaa !108
  br label %27

27:                                               ; preds = %23, %17
  %28 = call noundef ptr @_ZNK11OpenImageIO6v3_1_017basic_string_viewIcSt11char_traitsIcEE4dataEv(ptr noundef nonnull align 8 dereferenceable(16) %9) #3
  %29 = load i64, ptr %7, align 8, !tbaa !108
  %30 = getelementptr inbounds nuw i8, ptr %28, i64 %29
  %31 = load i64, ptr %8, align 8, !tbaa !108
  call void @_ZN11OpenImageIO6v3_1_017basic_string_viewIcSt11char_traitsIcEEC2EPKcm(ptr noundef nonnull align 8 dereferenceable(16) %0, ptr noundef %30, i64 noundef %31) #3
  br label %32

32:                                               ; preds = %27, %13
  ret void
}

; Function Attrs: mustprogress nounwind uwtable
define linkonce_odr hidden noundef i64 @_ZNK11OpenImageIO6v3_1_017basic_string_viewIcSt11char_traitsIcEE4sizeEv(ptr noundef nonnull align 8 dereferenceable(16) %0) #6 comdat align 2 {
  %2 = alloca ptr, align 8
  store ptr %0, ptr %2, align 8, !tbaa !103
  %3 = load ptr, ptr %2, align 8
  %4 = getelementptr inbounds nuw %"class.OpenImageIO::v3_1_0::basic_string_view", ptr %3, i32 0, i32 1
  %5 = load i64, ptr %4, align 8, !tbaa !105
  ret i64 %5
}

; Function Attrs: mustprogress nounwind uwtable
define void @_ZN11OpenImageIO6v3_1_07Strutil15skip_whitespaceERNS0_17basic_string_viewIcSt11char_traitsIcEEE(ptr noundef nonnull align 8 dereferenceable(16) %0) #6 personality ptr @__gxx_personality_v0 {
  %2 = alloca ptr, align 8
  store ptr %0, ptr %2, align 8, !tbaa !103
  br label %3

3:                                                ; preds = %16, %1
  %4 = load ptr, ptr %2, align 8, !tbaa !103
  %5 = call noundef i64 @_ZNK11OpenImageIO6v3_1_017basic_string_viewIcSt11char_traitsIcEE4sizeEv(ptr noundef nonnull align 8 dereferenceable(16) %4) #3
  %6 = icmp ne i64 %5, 0
  br i1 %6, label %7, label %14

7:                                                ; preds = %3
  %8 = load ptr, ptr %2, align 8, !tbaa !103
  %9 = invoke noundef nonnull align 1 dereferenceable(1) ptr @_ZNK11OpenImageIO6v3_1_017basic_string_viewIcSt11char_traitsIcEE5frontEv(ptr noundef nonnull align 8 dereferenceable(16) %8)
          to label %10 unwind label %19

10:                                               ; preds = %7
  %11 = load i8, ptr %9, align 1, !tbaa !8
  %12 = invoke noundef zeroext i1 @_ZN11OpenImageIO6v3_1_07Strutil7isspaceEc(i8 noundef signext %11)
          to label %13 unwind label %19

13:                                               ; preds = %10
  br label %14

14:                                               ; preds = %13, %3
  %15 = phi i1 [ false, %3 ], [ %12, %13 ]
  br i1 %15, label %16, label %18

16:                                               ; preds = %14
  %17 = load ptr, ptr %2, align 8, !tbaa !103
  call void @_ZN11OpenImageIO6v3_1_017basic_string_viewIcSt11char_traitsIcEE13remove_prefixEm(ptr noundef nonnull align 8 dereferenceable(16) %17, i64 noundef 1) #3
  br label %3, !llvm.loop !246

18:                                               ; preds = %14
  ret void

19:                                               ; preds = %10, %7
  %20 = landingpad { ptr, i32 }
          catch ptr null
  %21 = extractvalue { ptr, i32 } %20, 0
  call void @__clang_call_terminate(ptr %21) #28
  unreachable
}

; Function Attrs: mustprogress nounwind uwtable
define linkonce_odr hidden void @_ZN11OpenImageIO6v3_1_017basic_string_viewIcSt11char_traitsIcEEC2ERKS4_(ptr noundef nonnull align 8 dereferenceable(16) %0, ptr noundef nonnull align 8 dereferenceable(16) %1) unnamed_addr #6 comdat align 2 {
  %3 = alloca ptr, align 8
  %4 = alloca ptr, align 8
  store ptr %0, ptr %3, align 8, !tbaa !103
  store ptr %1, ptr %4, align 8, !tbaa !103
  %5 = load ptr, ptr %3, align 8
  %6 = getelementptr inbounds nuw %"class.OpenImageIO::v3_1_0::basic_string_view", ptr %5, i32 0, i32 0
  %7 = load ptr, ptr %4, align 8, !tbaa !103
  %8 = call noundef ptr @_ZNK11OpenImageIO6v3_1_017basic_string_viewIcSt11char_traitsIcEE4dataEv(ptr noundef nonnull align 8 dereferenceable(16) %7) #3
  store ptr %8, ptr %6, align 8, !tbaa !109
  %9 = getelementptr inbounds nuw %"class.OpenImageIO::v3_1_0::basic_string_view", ptr %5, i32 0, i32 1
  %10 = load ptr, ptr %4, align 8, !tbaa !103
  %11 = call noundef i64 @_ZNK11OpenImageIO6v3_1_017basic_string_viewIcSt11char_traitsIcEE4sizeEv(ptr noundef nonnull align 8 dereferenceable(16) %10) #3
  store i64 %11, ptr %9, align 8, !tbaa !105
  ret void
}

; Function Attrs: mustprogress nounwind uwtable
define noundef zeroext i1 @_ZN11OpenImageIO6v3_1_07Strutil11parse_floatERNS0_17basic_string_viewIcSt11char_traitsIcEEERfb(ptr noundef nonnull align 8 dereferenceable(16) %0, ptr noundef nonnull align 4 dereferenceable(4) %1, i1 noundef zeroext %2) #6 personality ptr @__gxx_personality_v0 {
  %4 = alloca i1, align 1
  %5 = alloca ptr, align 8
  %6 = alloca ptr, align 8
  %7 = alloca i8, align 1
  %8 = alloca %"class.OpenImageIO::v3_1_0::basic_string_view", align 8
  %9 = alloca i32, align 4
  %10 = alloca i64, align 8
  %11 = alloca float, align 4
  %12 = alloca %"class.OpenImageIO::v3_1_0::basic_string_view", align 8
  %13 = alloca %"class.OpenImageIO::v3_1_0::basic_string_view", align 8
  store ptr %0, ptr %5, align 8, !tbaa !103
  store ptr %1, ptr %6, align 8, !tbaa !249
  %14 = zext i1 %2 to i8
  store i8 %14, ptr %7, align 1, !tbaa !116
  call void @llvm.lifetime.start.p0(i64 16, ptr %8) #3
  %15 = load ptr, ptr %5, align 8, !tbaa !103
  invoke void @_ZN11OpenImageIO6v3_1_017basic_string_viewIcSt11char_traitsIcEEC2ERKS4_(ptr noundef nonnull align 8 dereferenceable(16) %8, ptr noundef nonnull align 8 dereferenceable(16) %15)
          to label %16 unwind label %39

16:                                               ; preds = %3
  call void @_ZN11OpenImageIO6v3_1_07Strutil15skip_whitespaceERNS0_17basic_string_viewIcSt11char_traitsIcEEE(ptr noundef nonnull align 8 dereferenceable(16) %8) #3
  %17 = call noundef i64 @_ZNK11OpenImageIO6v3_1_017basic_string_viewIcSt11char_traitsIcEE4sizeEv(ptr noundef nonnull align 8 dereferenceable(16) %8) #3
  %18 = icmp ne i64 %17, 0
  br i1 %18, label %20, label %19

19:                                               ; preds = %16
  store i1 false, ptr %4, align 1
  store i32 1, ptr %9, align 4
  br label %37

20:                                               ; preds = %16
  call void @llvm.lifetime.start.p0(i64 8, ptr %10) #3
  store i64 0, ptr %10, align 8, !tbaa !108
  call void @llvm.lifetime.start.p0(i64 4, ptr %11) #3
  invoke void @_ZN11OpenImageIO6v3_1_017basic_string_viewIcSt11char_traitsIcEEC2ERKS4_(ptr noundef nonnull align 8 dereferenceable(16) %12, ptr noundef nonnull align 8 dereferenceable(16) %8)
          to label %21 unwind label %39

21:                                               ; preds = %20
  %22 = invoke noundef float @_ZN11OpenImageIO6v3_1_07Strutil4stofENS0_17basic_string_viewIcSt11char_traitsIcEEEPm(ptr noundef %12, ptr noundef %10)
          to label %23 unwind label %39

23:                                               ; preds = %21
  store float %22, ptr %11, align 4, !tbaa !251
  %24 = load i64, ptr %10, align 8, !tbaa !108
  %25 = icmp eq i64 %24, 0
  br i1 %25, label %26, label %27

26:                                               ; preds = %23
  store i1 false, ptr %4, align 1
  store i32 1, ptr %9, align 4
  br label %36

27:                                               ; preds = %23
  %28 = load i8, ptr %7, align 1, !tbaa !116, !range !118, !noundef !119
  %29 = trunc i8 %28 to i1
  br i1 %29, label %30, label %33

30:                                               ; preds = %27
  call void @llvm.lifetime.start.p0(i64 16, ptr %13) #3
  %31 = load i64, ptr %10, align 8, !tbaa !108
  call void @_ZNK11OpenImageIO6v3_1_017basic_string_viewIcSt11char_traitsIcEE6substrEmm(ptr dead_on_unwind writable sret(%"class.OpenImageIO::v3_1_0::basic_string_view") align 8 %13, ptr noundef nonnull align 8 dereferenceable(16) %8, i64 noundef %31, i64 noundef -1) #3
  %32 = load ptr, ptr %5, align 8, !tbaa !103
  call void @llvm.memcpy.p0.p0.i64(ptr align 8 %32, ptr align 8 %13, i64 16, i1 false), !tbaa.struct !134
  call void @llvm.lifetime.end.p0(i64 16, ptr %13) #3
  br label %33

33:                                               ; preds = %30, %27
  %34 = load float, ptr %11, align 4, !tbaa !251
  %35 = load ptr, ptr %6, align 8, !tbaa !249
  store float %34, ptr %35, align 4, !tbaa !251
  store i1 true, ptr %4, align 1
  store i32 1, ptr %9, align 4
  br label %36

36:                                               ; preds = %33, %26
  call void @llvm.lifetime.end.p0(i64 4, ptr %11) #3
  call void @llvm.lifetime.end.p0(i64 8, ptr %10) #3
  br label %37

37:                                               ; preds = %36, %19
  call void @llvm.lifetime.end.p0(i64 16, ptr %8) #3
  %38 = load i1, ptr %4, align 1
  ret i1 %38

39:                                               ; preds = %21, %20, %3
  %40 = landingpad { ptr, i32 }
          catch ptr null
  %41 = extractvalue { ptr, i32 } %40, 0
  call void @__clang_call_terminate(ptr %41) #28
  unreachable
}